target datalayout = "e-m:e-p270:32:32-p271:32:32-p272:64:64-i64:64-i128:128-f80:128-n8:16:32:64-S128"
target triple = "x86_64-pc-linux-gnu"

%"class.sat::cut_set" = type { i32, ptr, i32, i32, ptr }
%"class.sat::cut" = type { i32, i32, [5 x i32], i64, i64 }
%"class.std::function" = type { %"class.std::_Function_base", ptr }
%"class.std::_Function_base" = type { %"union.std::_Any_data", ptr }
%"union.std::_Any_data" = type { %"union.std::_Nocopy_types" }
%"union.std::_Nocopy_types" = type { { i64, i64 } }

; Function Attrs: mustprogress nounwind uwtable
define linkonce_odr hidden void @_ZNSt12_Destroy_auxILb1EE9__destroyIPN3sat3cutEEEvT_S5_(ptr noundef %0, ptr noundef %1) #6 comdat align 2 {
  %3 = alloca ptr, align 8
  %4 = alloca ptr, align 8
  store ptr %0, ptr %3, align 8, !tbaa !10
  store ptr %1, ptr %4, align 8, !tbaa !10
  ret void
}

; Function Attrs: inlinehint mustprogress uwtable
define linkonce_odr hidden void @_ZSt8_DestroyIPN3sat3cutEEvT_S3_(ptr noundef %0, ptr noundef %1) #8 comdat {
  %3 = alloca ptr, align 8
  %4 = alloca ptr, align 8
  store ptr %0, ptr %3, align 8, !tbaa !10
  store ptr %1, ptr %4, align 8, !tbaa !10
  %5 = load ptr, ptr %3, align 8, !tbaa !10
  %6 = load ptr, ptr %4, align 8, !tbaa !10
  call void @_ZNSt12_Destroy_auxILb1EE9__destroyIPN3sat3cutEEEvT_S5_(ptr noundef %5, ptr noundef %6)
  ret void
}

; Function Attrs: inlinehint mustprogress nounwind uwtable
define linkonce_odr hidden void @_ZSt10_ConstructIN3sat3cutEJRS1_EEvPT_DpOT0_(ptr noundef %0, ptr noundef nonnull align 8 dereferenceable(48) %1) #7 comdat {
  %3 = alloca ptr, align 8
  %4 = alloca ptr, align 8
  store ptr %0, ptr %3, align 8, !tbaa !10
  store ptr %1, ptr %4, align 8, !tbaa !10
  %5 = load ptr, ptr %3, align 8, !tbaa !10
  %6 = load ptr, ptr %4, align 8, !tbaa !10
  call void @llvm.memcpy.p0.p0.i64(ptr align 8 %5, ptr align 8 %6, i64 48, i1 false), !tbaa.struct !26
  ret void
}

; Function Attrs: mustprogress uwtable
define linkonce_odr hidden noundef ptr @_ZSt16__do_uninit_copyIPN3sat3cutES2_ET0_T_S4_S3_(ptr noundef %0, ptr noundef %1, ptr noundef %2) #4 comdat personality ptr @__gxx_personality_v0 {
  %4 = alloca ptr, align 8
  %5 = alloca ptr, align 8
  %6 = alloca ptr, align 8
  %7 = alloca ptr, align 8
  %8 = alloca ptr, align 8
  %9 = alloca i32, align 4
  store ptr %0, ptr %4, align 8, !tbaa !10
  store ptr %1, ptr %5, align 8, !tbaa !10
  store ptr %2, ptr %6, align 8, !tbaa !10
  call void @llvm.lifetime.start.p0(i64 8, ptr %7) #3
  %10 = load ptr, ptr %6, align 8, !tbaa !10
  store ptr %10, ptr %7, align 8, !tbaa !10
  br label %11

11:                                               ; preds = %19, %3
  %12 = load ptr, ptr %4, align 8, !tbaa !10
  %13 = load ptr, ptr %5, align 8, !tbaa !10
  %14 = icmp ne ptr %12, %13
  br i1 %14, label %15, label %34

15:                                               ; preds = %11
  %16 = load ptr, ptr %7, align 8, !tbaa !10
  %17 = load ptr, ptr %4, align 8, !tbaa !10
  invoke void @_ZSt10_ConstructIN3sat3cutEJRS1_EEvPT_DpOT0_(ptr noundef %16, ptr noundef nonnull align 8 dereferenceable(48) %17)
          to label %18 unwind label %24

18:                                               ; preds = %15
  br label %19

19:                                               ; preds = %18
  %20 = load ptr, ptr %4, align 8, !tbaa !10
  %21 = getelementptr inbounds nuw %"class.sat::cut", ptr %20, i32 1
  store ptr %21, ptr %4, align 8, !tbaa !10
  %22 = load ptr, ptr %7, align 8, !tbaa !10
  %23 = getelementptr inbounds nuw %"class.sat::cut", ptr %22, i32 1
  store ptr %23, ptr %7, align 8, !tbaa !10
  br label %11, !llvm.loop !125

24:                                               ; preds = %15
  %25 = landingpad { ptr, i32 }
          catch ptr null
  %26 = extractvalue { ptr, i32 } %25, 0
  store ptr %26, ptr %8, align 8
  %27 = extractvalue { ptr, i32 } %25, 1
  store i32 %27, ptr %9, align 4
  br label %28

28:                                               ; preds = %24
  %29 = load ptr, ptr %8, align 8
  %30 = call ptr @__cxa_begin_catch(ptr %29) #3
  %31 = load ptr, ptr %6, align 8, !tbaa !10
  %32 = load ptr, ptr %7, align 8, !tbaa !10
  invoke void @_ZSt8_DestroyIPN3sat3cutEEvT_S3_(ptr noundef %31, ptr noundef %32)
          to label %33 unwind label %36

33:                                               ; preds = %28
  invoke void @__cxa_rethrow() #18
          to label %50 unwind label %36

34:                                               ; preds = %11
  %35 = load ptr, ptr %7, align 8, !tbaa !10
  call void @llvm.lifetime.end.p0(i64 8, ptr %7) #3
  ret ptr %35

36:                                               ; preds = %33, %28
  %37 = landingpad { ptr, i32 }
          cleanup
  %38 = extractvalue { ptr, i32 } %37, 0
  store ptr %38, ptr %8, align 8
  %39 = extractvalue { ptr, i32 } %37, 1
  store i32 %39, ptr %9, align 4
  invoke void @__cxa_end_catch()
          to label %40 unwind label %47

40:                                               ; preds = %36
  call void @llvm.lifetime.end.p0(i64 8, ptr %7) #3
  br label %42

41:                                               ; No predecessors!
  unreachable

42:                                               ; preds = %40
  %43 = load ptr, ptr %8, align 8
  %44 = load i32, ptr %9, align 4
  %45 = insertvalue { ptr, i32 } poison, ptr %43, 0
  %46 = insertvalue { ptr, i32 } %45, i32 %44, 1
  resume { ptr, i32 } %46

47:                                               ; preds = %36
  %48 = landingpad { ptr, i32 }
          catch ptr null
  %49 = extractvalue { ptr, i32 } %48, 0
  call void @__clang_call_terminate(ptr %49) #17
  unreachable

50:                                               ; preds = %33
  unreachable
}

; Function Attrs: noinline noreturn nounwind uwtable
define linkonce_odr hidden void @__clang_call_terminate(ptr noundef %0) #11 comdat {
  %2 = call ptr @__cxa_begin_catch(ptr %0) #3
  call void @_ZSt9terminatev() #17
  unreachable
}

; Function Attrs: mustprogress nounwind uwtable
define linkonce_odr hidden noundef zeroext i1 @_ZNKSt14_Function_base8_M_emptyEv(ptr noundef nonnull align 8 dereferenceable(24) %0) #6 comdat align 2 {
  %2 = alloca ptr, align 8
  store ptr %0, ptr %2, align 8, !tbaa !122
  %3 = load ptr, ptr %2, align 8
  %4 = getelementptr inbounds nuw %"class.std::_Function_base", ptr %3, i32 0, i32 1
  %5 = load ptr, ptr %4, align 8, !tbaa !124
  %6 = icmp ne ptr %5, null
  %7 = xor i1 %6, true
  ret i1 %7
}

; Function Attrs: mustprogress uwtable
define linkonce_odr hidden noundef ptr @_ZNSt20__uninitialized_copyILb0EE13__uninit_copyIPN3sat3cutES4_EET0_T_S6_S5_(ptr noundef %0, ptr noundef %1, ptr noundef %2) #4 comdat align 2 {
  %4 = alloca ptr, align 8
  %5 = alloca ptr, align 8
  %6 = alloca ptr, align 8
  store ptr %0, ptr %4, align 8, !tbaa !10
  store ptr %1, ptr %5, align 8, !tbaa !10
  store ptr %2, ptr %6, align 8, !tbaa !10
  %7 = load ptr, ptr %4, align 8, !tbaa !10
  %8 = load ptr, ptr %5, align 8, !tbaa !10
  %9 = load ptr, ptr %6, align 8, !tbaa !10
  %10 = call noundef ptr @_ZSt16__do_uninit_copyIPN3sat3cutES2_ET0_T_S4_S3_(ptr noundef %7, ptr noundef %8, ptr noundef %9)
  ret ptr %10
}

; Function Attrs: mustprogress uwtable
define linkonce_odr hidden void @_ZNKSt8functionIFvjRKN3sat3cutEEEclEjS3_(ptr noundef nonnull align 8 dereferenceable(32) %0, i32 noundef %1, ptr noundef nonnull align 8 dereferenceable(48) %2) #4 comdat align 2 {
  %4 = alloca ptr, align 8
  %5 = alloca i32, align 4
  %6 = alloca ptr, align 8
  store ptr %0, ptr %4, align 8, !tbaa !8
  store i32 %1, ptr %5, align 4, !tbaa !12
  store ptr %2, ptr %6, align 8, !tbaa !10
  %7 = load ptr, ptr %4, align 8
  %8 = call noundef zeroext i1 @_ZNKSt14_Function_base8_M_emptyEv(ptr noundef nonnull align 8 dereferenceable(24) %7)
  br i1 %8, label %9, label %10

9:                                                ; preds = %3
  call void @_ZSt25__throw_bad_function_callv() #18
  unreachable

10:                                               ; preds = %3
  %11 = getelementptr inbounds nuw %"class.std::function", ptr %7, i32 0, i32 1
  %12 = load ptr, ptr %11, align 8, !tbaa !61
  %13 = getelementptr inbounds nuw %"class.std::_Function_base", ptr %7, i32 0, i32 0
  %14 = load ptr, ptr %6, align 8, !tbaa !10
  call void %12(ptr noundef nonnull align 8 dereferenceable(16) %13, ptr noundef nonnull align 4 dereferenceable(4) %5, ptr noundef nonnull align 8 dereferenceable(48) %14)
  ret void
}

; Function Attrs: mustprogress nounwind uwtable
define linkonce_odr hidden noundef zeroext i1 @_ZNKSt8functionIFvjRKN3sat3cutEEEcvbEv(ptr noundef nonnull align 8 dereferenceable(32) %0) #6 comdat align 2 personality ptr @__gxx_personality_v0 {
  %2 = alloca ptr, align 8
  store ptr %0, ptr %2, align 8, !tbaa !8
  %3 = load ptr, ptr %2, align 8
  %4 = invoke noundef zeroext i1 @_ZNKSt14_Function_base8_M_emptyEv(ptr noundef nonnull align 8 dereferenceable(24) %3)
          to label %5 unwind label %7

5:                                                ; preds = %1
  %6 = xor i1 %4, true
  ret i1 %6

7:                                                ; preds = %1
  %8 = landingpad { ptr, i32 }
          catch ptr null
  %9 = extractvalue { ptr, i32 } %8, 0
  call void @__clang_call_terminate(ptr %9) #17
  unreachable
}

; Function Attrs: inlinehint mustprogress uwtable
define linkonce_odr hidden noundef ptr @_ZSt18uninitialized_copyIPN3sat3cutES2_ET0_T_S4_S3_(ptr noundef %0, ptr noundef %1, ptr noundef %2) #8 comdat {
  %4 = alloca ptr, align 8
  %5 = alloca ptr, align 8
  %6 = alloca ptr, align 8
  %7 = alloca i8, align 1
  %8 = alloca i8, align 1
  store ptr %0, ptr %4, align 8, !tbaa !10
  store ptr %1, ptr %5, align 8, !tbaa !10
  store ptr %2, ptr %6, align 8, !tbaa !10
  call void @llvm.lifetime.start.p0(i64 1, ptr %7) #3
  store i8 0, ptr %7, align 1, !tbaa !68
  call void @llvm.lifetime.start.p0(i64 1, ptr %8) #3
  store i8 0, ptr %8, align 1, !tbaa !68
  %9 = load ptr, ptr %4, align 8, !tbaa !10
  %10 = load ptr, ptr %5, align 8, !tbaa !10
  %11 = load ptr, ptr %6, align 8, !tbaa !10
  %12 = call noundef ptr @_ZNSt20__uninitialized_copyILb0EE13__uninit_copyIPN3sat3cutES4_EET0_T_S6_S5_(ptr noundef %9, ptr noundef %10, ptr noundef %11)
  call void @llvm.lifetime.end.p0(i64 1, ptr %8) #3
  call void @llvm.lifetime.end.p0(i64 1, ptr %7) #3
  ret ptr %12
}

; Function Attrs: inlinehint mustprogress nounwind uwtable
define linkonce_odr hidden void @_ZdaPvR6region(ptr noundef %0, ptr noundef nonnull align 8 dereferenceable(40) %1) #7 comdat {
  %3 = alloca ptr, align 8
  %4 = alloca ptr, align 8
  store ptr %0, ptr %3, align 8, !tbaa !67
  store ptr %1, ptr %4, align 8, !tbaa !64
  ret void
}

; Function Attrs: mustprogress nounwind uwtable
define linkonce_odr hidden void @_ZN3sat3cutC2Ev(ptr noundef nonnull align 8 dereferenceable(48) %0) unnamed_addr #6 comdat align 2 {
  %2 = alloca ptr, align 8
  store ptr %0, ptr %2, align 8, !tbaa !10
  %3 = load ptr, ptr %2, align 8
  %4 = getelementptr inbounds nuw %"class.sat::cut", ptr %3, i32 0, i32 0
  store i32 0, ptr %4, align 8, !tbaa !20
  %5 = getelementptr inbounds nuw %"class.sat::cut", ptr %3, i32 0, i32 1
  store i32 0, ptr %5, align 4, !tbaa !59
  %6 = getelementptr inbounds nuw %"class.sat::cut", ptr %3, i32 0, i32 3
  store i64 0, ptr %6, align 8, !tbaa !65
  %7 = getelementptr inbounds nuw %"class.sat::cut", ptr %3, i32 0, i32 4
  store i64 0, ptr %7, align 8, !tbaa !66
  %8 = getelementptr inbounds nuw %"class.sat::cut", ptr %3, i32 0, i32 2
  %9 = getelementptr inbounds [5 x i32], ptr %8, i64 0, i64 4
  store i32 0, ptr %9, align 8, !tbaa !12
  %10 = getelementptr inbounds nuw %"class.sat::cut", ptr %3, i32 0, i32 2
  %11 = getelementptr inbounds [5 x i32], ptr %10, i64 0, i64 3
  store i32 0, ptr %11, align 4, !tbaa !12
  %12 = getelementptr inbounds nuw %"class.sat::cut", ptr %3, i32 0, i32 2
  %13 = getelementptr inbounds [5 x i32], ptr %12, i64 0, i64 2
  store i32 0, ptr %13, align 8, !tbaa !12
  %14 = getelementptr inbounds nuw %"class.sat::cut", ptr %3, i32 0, i32 2
  %15 = getelementptr inbounds [5 x i32], ptr %14, i64 0, i64 1
  store i32 0, ptr %15, align 4, !tbaa !12
  %16 = getelementptr inbounds nuw %"class.sat::cut", ptr %3, i32 0, i32 2
  %17 = getelementptr inbounds [5 x i32], ptr %16, i64 0, i64 0
  store i32 0, ptr %17, align 8, !tbaa !12
  ret void
}

; Function Attrs: inlinehint mustprogress uwtable
define linkonce_odr hidden noundef ptr @_ZnamR6region(i64 noundef %0, ptr noundef nonnull align 8 dereferenceable(40) %1) #8 comdat {
  %3 = alloca i64, align 8
  %4 = alloca ptr, align 8
  store i64 %0, ptr %3, align 8, !tbaa !28
  store ptr %1, ptr %4, align 8, !tbaa !64
  %5 = load ptr, ptr %4, align 8, !tbaa !64
  %6 = load i64, ptr %3, align 8, !tbaa !28
  %7 = call noundef ptr @_ZN6region8allocateEm(ptr noundef nonnull align 8 dereferenceable(40) %5, i64 noundef %6)
  ret ptr %7
}

; Function Attrs: mustprogress uwtable
define hidden void @_ZN3sat7cut_set9push_backERSt8functionIFvjRKNS_3cutEEES4_(ptr noundef nonnull align 8 dereferenceable(32) %0, ptr noundef nonnull align 8 dereferenceable(32) %1, ptr noundef nonnull align 8 dereferenceable(48) %2) #4 align 2 personality ptr @__gxx_personality_v0 {
  %4 = alloca ptr, align 8
  %5 = alloca ptr, align 8
  %6 = alloca ptr, align 8
  %7 = alloca ptr, align 8
  %8 = alloca i32, align 4
  %9 = alloca ptr, align 8
  store ptr %0, ptr %4, align 8, !tbaa !3
  store ptr %1, ptr %5, align 8, !tbaa !8
  store ptr %2, ptr %6, align 8, !tbaa !10
  %10 = load ptr, ptr %4, align 8
  %11 = getelementptr inbounds nuw %"class.sat::cut_set", ptr %10, i32 0, i32 4
  %12 = load ptr, ptr %11, align 8, !tbaa !17
  %13 = icmp ne ptr %12, null
  br i1 %13, label %39, label %14

14:                                               ; preds = %3
  %15 = getelementptr inbounds nuw %"class.sat::cut_set", ptr %10, i32 0, i32 3
  %16 = load i32, ptr %15, align 4, !tbaa !29
  %17 = zext i32 %16 to i64
  %18 = call { i64, i1 } @llvm.umul.with.overflow.i64(i64 %17, i64 48)
  %19 = extractvalue { i64, i1 } %18, 1
  %20 = extractvalue { i64, i1 } %18, 0
  %21 = select i1 %19, i64 -1, i64 %20
  %22 = getelementptr inbounds nuw %"class.sat::cut_set", ptr %10, i32 0, i32 1
  %23 = load ptr, ptr %22, align 8, !tbaa !30
  %24 = call noundef ptr @_ZnamR6region(i64 noundef %21, ptr noundef nonnull align 8 dereferenceable(40) %23)
  %25 = icmp eq i64 %17, 0
  br i1 %25, label %33, label %26

26:                                               ; preds = %14
  %27 = getelementptr inbounds %"class.sat::cut", ptr %24, i64 %17
  br label %28

28:                                               ; preds = %30, %26
  %29 = phi ptr [ %24, %26 ], [ %31, %30 ]
  invoke void @_ZN3sat3cutC2Ev(ptr noundef nonnull align 8 dereferenceable(48) %29)
          to label %30 unwind label %35

30:                                               ; preds = %28
  %31 = getelementptr inbounds %"class.sat::cut", ptr %29, i64 1
  %32 = icmp eq ptr %31, %27
  br i1 %32, label %33, label %28

33:                                               ; preds = %14, %30
  %34 = getelementptr inbounds nuw %"class.sat::cut_set", ptr %10, i32 0, i32 4
  store ptr %24, ptr %34, align 8, !tbaa !17
  br label %39

35:                                               ; preds = %28
  %36 = landingpad { ptr, i32 }
          cleanup
  %37 = extractvalue { ptr, i32 } %36, 0
  store ptr %37, ptr %7, align 8
  %38 = extractvalue { ptr, i32 } %36, 1
  store i32 %38, ptr %8, align 4
  call void @_ZdaPvR6region(ptr noundef %24, ptr noundef nonnull align 8 dereferenceable(40) %23) #3
  br label %105

39:                                               ; preds = %33, %3
  %40 = getelementptr inbounds nuw %"class.sat::cut_set", ptr %10, i32 0, i32 2
  %41 = load i32, ptr %40, align 8, !tbaa !14
  %42 = getelementptr inbounds nuw %"class.sat::cut_set", ptr %10, i32 0, i32 3
  %43 = load i32, ptr %42, align 4, !tbaa !29
  %44 = icmp eq i32 %41, %43
  br i1 %44, label %45, label %84

45:                                               ; preds = %39
  %46 = getelementptr inbounds nuw %"class.sat::cut_set", ptr %10, i32 0, i32 3
  %47 = load i32, ptr %46, align 4, !tbaa !29
  %48 = mul i32 %47, 2
  store i32 %48, ptr %46, align 4, !tbaa !29
  call void @llvm.lifetime.start.p0(i64 8, ptr %9) #3
  %49 = getelementptr inbounds nuw %"class.sat::cut_set", ptr %10, i32 0, i32 3
  %50 = load i32, ptr %49, align 4, !tbaa !29
  %51 = zext i32 %50 to i64
  %52 = call { i64, i1 } @llvm.umul.with.overflow.i64(i64 %51, i64 48)
  %53 = extractvalue { i64, i1 } %52, 1
  %54 = extractvalue { i64, i1 } %52, 0
  %55 = select i1 %53, i64 -1, i64 %54
  %56 = getelementptr inbounds nuw %"class.sat::cut_set", ptr %10, i32 0, i32 1
  %57 = load ptr, ptr %56, align 8, !tbaa !30
  %58 = call noundef ptr @_ZnamR6region(i64 noundef %55, ptr noundef nonnull align 8 dereferenceable(40) %57)
  %59 = icmp eq i64 %51, 0
  br i1 %59, label %67, label %60

60:                                               ; preds = %45
  %61 = getelementptr inbounds %"class.sat::cut", ptr %58, i64 %51
  br label %62

62:                                               ; preds = %64, %60
  %63 = phi ptr [ %58, %60 ], [ %65, %64 ]
  invoke void @_ZN3sat3cutC2Ev(ptr noundef nonnull align 8 dereferenceable(48) %63)
          to label %64 unwind label %80

64:                                               ; preds = %62
  %65 = getelementptr inbounds %"class.sat::cut", ptr %63, i64 1
  %66 = icmp eq ptr %65, %61
  br i1 %66, label %67, label %62

67:                                               ; preds = %45, %64
  store ptr %58, ptr %9, align 8, !tbaa !10
  %68 = getelementptr inbounds nuw %"class.sat::cut_set", ptr %10, i32 0, i32 4
  %69 = load ptr, ptr %68, align 8, !tbaa !17
  %70 = getelementptr inbounds nuw %"class.sat::cut_set", ptr %10, i32 0, i32 4
  %71 = load ptr, ptr %70, align 8, !tbaa !17
  %72 = getelementptr inbounds nuw %"class.sat::cut_set", ptr %10, i32 0, i32 2
  %73 = load i32, ptr %72, align 8, !tbaa !14
  %74 = zext i32 %73 to i64
  %75 = getelementptr inbounds nuw %"class.sat::cut", ptr %71, i64 %74
  %76 = load ptr, ptr %9, align 8, !tbaa !10
  %77 = call noundef ptr @_ZSt18uninitialized_copyIPN3sat3cutES2_ET0_T_S4_S3_(ptr noundef %69, ptr noundef %75, ptr noundef %76)
  %78 = load ptr, ptr %9, align 8, !tbaa !10
  %79 = getelementptr inbounds nuw %"class.sat::cut_set", ptr %10, i32 0, i32 4
  store ptr %78, ptr %79, align 8, !tbaa !17
  call void @llvm.lifetime.end.p0(i64 8, ptr %9) #3
  br label %84

80:                                               ; preds = %62
  %81 = landingpad { ptr, i32 }
          cleanup
  %82 = extractvalue { ptr, i32 } %81, 0
  store ptr %82, ptr %7, align 8
  %83 = extractvalue { ptr, i32 } %81, 1
  store i32 %83, ptr %8, align 4
  call void @_ZdaPvR6region(ptr noundef %58, ptr noundef nonnull align 8 dereferenceable(40) %57) #3
  call void @llvm.lifetime.end.p0(i64 8, ptr %9) #3
  br label %105

84:                                               ; preds = %67, %39
  %85 = getelementptr inbounds nuw %"class.sat::cut_set", ptr %10, i32 0, i32 0
  %86 = load i32, ptr %85, align 8, !tbaa !31
  %87 = icmp ne i32 %86, -1
  br i1 %87, label %88, label %96

88:                                               ; preds = %84
  %89 = load ptr, ptr %5, align 8, !tbaa !8
  %90 = call noundef zeroext i1 @_ZNKSt8functionIFvjRKN3sat3cutEEEcvbEv(ptr noundef nonnull align 8 dereferenceable(32) %89) #3
  br i1 %90, label %91, label %96

91:                                               ; preds = %88
  %92 = load ptr, ptr %5, align 8, !tbaa !8
  %93 = getelementptr inbounds nuw %"class.sat::cut_set", ptr %10, i32 0, i32 0
  %94 = load i32, ptr %93, align 8, !tbaa !31
  %95 = load ptr, ptr %6, align 8, !tbaa !10
  call void @_ZNKSt8functionIFvjRKN3sat3cutEEEclEjS3_(ptr noundef nonnull align 8 dereferenceable(32) %92, i32 noundef %94, ptr noundef nonnull align 8 dereferenceable(48) %95)
  br label %96

96:                                               ; preds = %91, %88, %84
  %97 = load ptr, ptr %6, align 8, !tbaa !10
  %98 = getelementptr inbounds nuw %"class.sat::cut_set", ptr %10, i32 0, i32 4
  %99 = load ptr, ptr %98, align 8, !tbaa !17
  %100 = getelementptr inbounds nuw %"class.sat::cut_set", ptr %10, i32 0, i32 2
  %101 = load i32, ptr %100, align 8, !tbaa !14
  %102 = add i32 %101, 1
  store i32 %102, ptr %100, align 8, !tbaa !14
  %103 = zext i32 %101 to i64
  %104 = getelementptr inbounds nuw %"class.sat::cut", ptr %99, i64 %103
  call void @llvm.memcpy.p0.p0.i64(ptr align 8 %104, ptr align 8 %97, i64 48, i1 false), !tbaa.struct !26
  ret void

105:                                              ; preds = %80, %35
  %106 = load ptr, ptr %7, align 8
  %107 = load i32, ptr %8, align 4
  %108 = insertvalue { ptr, i32 } poison, ptr %106, 0
  %109 = insertvalue { ptr, i32 } %108, i32 %107, 1
  resume { ptr, i32 } %109
}