; Function Attrs: mustprogress uwtable
define hidden void @_ZN3sat7cut_set9push_backERSt8functionIFvjRKNS_3cutEEES4_(ptr noundef nonnull align 8 captures(none) dereferenceable(32) %0, ptr noundef nonnull align 8 dereferenceable(32) %1, ptr noundef nonnull align 8 dereferenceable(48) %2) local_unnamed_addr #3 align 2 personality ptr @__gxx_personality_v0 {
  %4 = alloca i32, align 4
  %5 = getelementptr inbounds nuw i8, ptr %0, i64 24
  %6 = load ptr, ptr %5, align 8, !tbaa !11
  %.not = icmp eq ptr %6, null
  br i1 %.not, label %7, label %23

7:                                                ; preds = %3
  %8 = getelementptr inbounds nuw i8, ptr %0, i64 20
  %9 = load i32, ptr %8, align 4, !tbaa !29
  %10 = zext i32 %9 to i64
  %11 = mul nuw nsw i64 %10, 48
  %12 = getelementptr inbounds nuw i8, ptr %0, i64 8
  %13 = load ptr, ptr %12, align 8, !tbaa !30
  %14 = tail call noundef ptr @_ZN6region8allocateEm(ptr noundef nonnull align 8 dereferenceable(40) %13, i64 noundef %11)
  %15 = icmp eq i32 %9, 0
  br i1 %15, label %.loopexit12, label %16

16:                                               ; preds = %7
  %17 = getelementptr inbounds nuw %"class.sat::cut", ptr %14, i64 %10
  br label %18

18:                                               ; preds = %18, %16
  %19 = phi ptr [ %14, %16 ], [ %21, %18 ]
  %20 = getelementptr inbounds nuw i8, ptr %19, i64 32
  tail call void @llvm.memset.p0.i64(ptr noundef nonnull align 8 dereferenceable(48) %19, i8 0, i64 28, i1 false)
  tail call void @llvm.memset.p0.i64(ptr noundef nonnull align 8 dereferenceable(16) %20, i8 0, i64 16, i1 false)
  %21 = getelementptr inbounds nuw i8, ptr %19, i64 48
  %22 = icmp eq ptr %21, %17
  br i1 %22, label %.loopexit12, label %18

.loopexit12:                                      ; preds = %18, %7
  store ptr %14, ptr %5, align 8, !tbaa !11
  br label %23

23:                                               ; preds = %.loopexit12, %3
  %24 = phi ptr [ %14, %.loopexit12 ], [ %6, %3 ]
  %25 = getelementptr inbounds nuw i8, ptr %0, i64 16
  %26 = load i32, ptr %25, align 8, !tbaa !3
  %27 = getelementptr inbounds nuw i8, ptr %0, i64 20
  %28 = load i32, ptr %27, align 4, !tbaa !29
  %29 = icmp eq i32 %26, %28
  br i1 %29, label %30, label %51

30:                                               ; preds = %23
  %31 = shl i32 %26, 1
  store i32 %31, ptr %27, align 4, !tbaa !29
  %32 = zext i32 %31 to i64
  %33 = mul nuw nsw i64 %32, 48
  %34 = getelementptr inbounds nuw i8, ptr %0, i64 8
  %35 = load ptr, ptr %34, align 8, !tbaa !30
  %36 = tail call noundef ptr @_ZN6region8allocateEm(ptr noundef nonnull align 8 dereferenceable(40) %35, i64 noundef %33)
  %37 = icmp eq i32 %31, 0
  br i1 %37, label %.loopexit, label %38

38:                                               ; preds = %30
  %39 = getelementptr inbounds nuw %"class.sat::cut", ptr %36, i64 %32
  br label %40

40:                                               ; preds = %40, %38
  %41 = phi ptr [ %36, %38 ], [ %43, %40 ]
  %42 = getelementptr inbounds nuw i8, ptr %41, i64 32
  tail call void @llvm.memset.p0.i64(ptr noundef nonnull align 8 dereferenceable(48) %41, i8 0, i64 28, i1 false)
  tail call void @llvm.memset.p0.i64(ptr noundef nonnull align 8 dereferenceable(16) %42, i8 0, i64 16, i1 false)
  %43 = getelementptr inbounds nuw i8, ptr %41, i64 48
  %44 = icmp eq ptr %43, %39
  br i1 %44, label %.loopexit, label %40

.loopexit:                                        ; preds = %40, %30
  %45 = load ptr, ptr %5, align 8, !tbaa !11
  %46 = load i32, ptr %25, align 8, !tbaa !3
  %47 = zext i32 %46 to i64
  %48 = getelementptr inbounds nuw %"class.sat::cut", ptr %45, i64 %47
  %.not9.i.i.i = icmp eq i32 %46, 0
  br i1 %.not9.i.i.i, label %_ZSt18uninitialized_copyIPN3sat3cutES2_ET0_T_S4_S3_.exit, label %.lr.ph.i.i.i

.lr.ph.i.i.i:                                     ; preds = %.loopexit, %.lr.ph.i.i.i
  %.011.i.i.i = phi ptr [ %50, %.lr.ph.i.i.i ], [ %36, %.loopexit ]
  %.0810.i.i.i = phi ptr [ %49, %.lr.ph.i.i.i ], [ %45, %.loopexit ]
  tail call void @llvm.memcpy.p0.p0.i64(ptr noundef nonnull align 8 dereferenceable(48) %.011.i.i.i, ptr noundef nonnull align 8 dereferenceable(48) %.0810.i.i.i, i64 48, i1 false), !tbaa.struct !19
  %49 = getelementptr inbounds nuw i8, ptr %.0810.i.i.i, i64 48
  %50 = getelementptr inbounds nuw i8, ptr %.011.i.i.i, i64 48
  %.not.i.i.i = icmp eq ptr %49, %48
  br i1 %.not.i.i.i, label %_ZSt18uninitialized_copyIPN3sat3cutES2_ET0_T_S4_S3_.exit, label %.lr.ph.i.i.i, !llvm.loop !31

_ZSt18uninitialized_copyIPN3sat3cutES2_ET0_T_S4_S3_.exit: ; preds = %.lr.ph.i.i.i, %.loopexit
  store ptr %36, ptr %5, align 8, !tbaa !11
  br label %51

51:                                               ; preds = %_ZSt18uninitialized_copyIPN3sat3cutES2_ET0_T_S4_S3_.exit, %23
  %52 = phi ptr [ %36, %_ZSt18uninitialized_copyIPN3sat3cutES2_ET0_T_S4_S3_.exit ], [ %24, %23 ]
  %53 = load i32, ptr %0, align 8, !tbaa !23
  %.not9 = icmp ne i32 %53, -1
  %54 = getelementptr inbounds nuw i8, ptr %1, i64 16
  %55 = load ptr, ptr %54, align 8
  %.not.i.i = icmp ne ptr %55, null
  %or.cond = select i1 %.not9, i1 %.not.i.i, i1 false
  br i1 %or.cond, label %_ZNKSt8functionIFvjRKN3sat3cutEEEclEjS3_.exit, label %58

_ZNKSt8functionIFvjRKN3sat3cutEEEclEjS3_.exit:    ; preds = %51
  call void @llvm.lifetime.start.p0(i64 4, ptr nonnull %4)
  store i32 %53, ptr %4, align 4, !tbaa !16
  %56 = getelementptr inbounds nuw i8, ptr %1, i64 24
  %57 = load ptr, ptr %56, align 8, !tbaa !26
  call void %57(ptr noundef nonnull align 8 dereferenceable(32) %1, ptr noundef nonnull align 4 dereferenceable(4) %4, ptr noundef nonnull align 8 dereferenceable(48) %2)
  call void @llvm.lifetime.end.p0(i64 4, ptr nonnull %4)
  %.pre = load ptr, ptr %5, align 8, !tbaa !11
  br label %58

58:                                               ; preds = %_ZNKSt8functionIFvjRKN3sat3cutEEEclEjS3_.exit, %51
  %59 = phi ptr [ %.pre, %_ZNKSt8functionIFvjRKN3sat3cutEEEclEjS3_.exit ], [ %52, %51 ]
  %60 = load i32, ptr %25, align 8, !tbaa !3
  %61 = add i32 %60, 1
  store i32 %61, ptr %25, align 8, !tbaa !3
  %62 = zext i32 %60 to i64
  %63 = getelementptr inbounds nuw %"class.sat::cut", ptr %59, i64 %62
  call void @llvm.memcpy.p0.p0.i64(ptr noundef nonnull align 8 dereferenceable(48) %63, ptr noundef nonnull align 8 dereferenceable(48) %2, i64 48, i1 false), !tbaa.struct !19
  ret void
}